target datalayout = "e-m:e-p270:32:32-p271:32:32-p272:64:64-i64:64-i128:128-f80:128-n8:16:32:64-S128"
target triple = "x86_64-pc-linux-gnu"

%struct.AVFilterContext = type { ptr, ptr, ptr, ptr, ptr, i32, ptr, ptr, i32, ptr, ptr, i32, i32, ptr, ptr, ptr, ptr, i32, ptr, i32, i32 }
%struct.ShufflePlanesContext = type { ptr, i32, [4 x i32], i32 }
%struct.AVFilterLink = type { ptr, ptr, ptr, ptr, i32, i32, i32, i32, %struct.AVRational, i32, i32, i32, %struct.AVChannelLayout, %struct.AVRational, ptr, i32, %struct.AVFilterFormatsConfig, %struct.AVFilterFormatsConfig }
%struct.AVChannelLayout = type { i32, i32, %union.anon.1, ptr }
%union.anon.1 = type { i64 }
%struct.AVRational = type { i32, i32 }
%struct.AVFilterFormatsConfig = type { ptr, ptr, ptr, ptr, ptr }
%struct.AVFrame = type { [8 x ptr], [8 x i32], ptr, i32, i32, i32, i32, i32, %struct.AVRational, i64, i64, %struct.AVRational, i32, ptr, i32, i32, [8 x ptr], ptr, i32, ptr, i32, i32, i32, i32, i32, i32, i32, i64, ptr, i32, ptr, ptr, i64, i64, i64, i64, ptr, %struct.AVChannelLayout, i64 }

; Function Attrs: nounwind uwtable
define internal i32 @shuffleplanes_filter_frame(ptr noundef %0, ptr noundef %1) #0 {
  %3 = alloca i32, align 4
  %4 = alloca ptr, align 8
  %5 = alloca ptr, align 8
  %6 = alloca ptr, align 8
  %7 = alloca ptr, align 8
  %8 = alloca [4 x ptr], align 16
  %9 = alloca [4 x i32], align 16
  %10 = alloca i32, align 4
  %11 = alloca i32, align 4
  %12 = alloca ptr, align 8
  %13 = alloca i32, align 4
  store ptr %0, ptr %4, align 8, !tbaa !39
  store ptr %1, ptr %5, align 8, !tbaa !41
  call void @llvm.lifetime.start.p0(i64 8, ptr %6) #6
  %14 = load ptr, ptr %4, align 8, !tbaa !39
  %15 = getelementptr inbounds nuw %struct.AVFilterLink, ptr %14, i32 0, i32 2
  %16 = load ptr, ptr %15, align 8, !tbaa !43
  store ptr %16, ptr %6, align 8, !tbaa !4
  call void @llvm.lifetime.start.p0(i64 8, ptr %7) #6
  %17 = load ptr, ptr %6, align 8, !tbaa !4
  %18 = getelementptr inbounds nuw %struct.AVFilterContext, ptr %17, i32 0, i32 9
  %19 = load ptr, ptr %18, align 8, !tbaa !14
  store ptr %19, ptr %7, align 8, !tbaa !26
  call void @llvm.lifetime.start.p0(i64 32, ptr %8) #6
  call void @llvm.memset.p0.i64(ptr align 16 %8, i8 0, i64 32, i1 false)
  call void @llvm.lifetime.start.p0(i64 16, ptr %9) #6
  call void @llvm.memset.p0.i64(ptr align 16 %9, i8 0, i64 16, i1 false)
  call void @llvm.lifetime.start.p0(i64 4, ptr %10) #6
  call void @llvm.lifetime.start.p0(i64 4, ptr %11) #6
  store i32 0, ptr %10, align 4, !tbaa !28
  br label %20

20:                                               ; preds = %55, %2
  %21 = load i32, ptr %10, align 4, !tbaa !28
  %22 = load ptr, ptr %7, align 8, !tbaa !26
  %23 = getelementptr inbounds nuw %struct.ShufflePlanesContext, ptr %22, i32 0, i32 1
  %24 = load i32, ptr %23, align 8, !tbaa !50
  %25 = icmp slt i32 %21, %24
  br i1 %25, label %26, label %58

26:                                               ; preds = %20
  %27 = load ptr, ptr %5, align 8, !tbaa !41
  %28 = getelementptr inbounds nuw %struct.AVFrame, ptr %27, i32 0, i32 0
  %29 = load ptr, ptr %7, align 8, !tbaa !26
  %30 = getelementptr inbounds nuw %struct.ShufflePlanesContext, ptr %29, i32 0, i32 2
  %31 = load i32, ptr %10, align 4, !tbaa !28
  %32 = sext i32 %31 to i64
  %33 = getelementptr inbounds [4 x i32], ptr %30, i64 0, i64 %32
  %34 = load i32, ptr %33, align 4, !tbaa !28
  %35 = sext i32 %34 to i64
  %36 = getelementptr inbounds [8 x ptr], ptr %28, i64 0, i64 %35
  %37 = load ptr, ptr %36, align 8, !tbaa !52
  %38 = load i32, ptr %10, align 4, !tbaa !28
  %39 = sext i32 %38 to i64
  %40 = getelementptr inbounds [4 x ptr], ptr %8, i64 0, i64 %39
  store ptr %37, ptr %40, align 8, !tbaa !52
  %41 = load ptr, ptr %5, align 8, !tbaa !41
  %42 = getelementptr inbounds nuw %struct.AVFrame, ptr %41, i32 0, i32 1
  %43 = load ptr, ptr %7, align 8, !tbaa !26
  %44 = getelementptr inbounds nuw %struct.ShufflePlanesContext, ptr %43, i32 0, i32 2
  %45 = load i32, ptr %10, align 4, !tbaa !28
  %46 = sext i32 %45 to i64
  %47 = getelementptr inbounds [4 x i32], ptr %44, i64 0, i64 %46
  %48 = load i32, ptr %47, align 4, !tbaa !28
  %49 = sext i32 %48 to i64
  %50 = getelementptr inbounds [8 x i32], ptr %42, i64 0, i64 %49
  %51 = load i32, ptr %50, align 4, !tbaa !28
  %52 = load i32, ptr %10, align 4, !tbaa !28
  %53 = sext i32 %52 to i64
  %54 = getelementptr inbounds [4 x i32], ptr %9, i64 0, i64 %53
  store i32 %51, ptr %54, align 4, !tbaa !28
  br label %55

55:                                               ; preds = %26
  %56 = load i32, ptr %10, align 4, !tbaa !28
  %57 = add nsw i32 %56, 1
  store i32 %57, ptr %10, align 4, !tbaa !28
  br label %20, !llvm.loop !53

58:                                               ; preds = %20
  %59 = load ptr, ptr %5, align 8, !tbaa !41
  %60 = getelementptr inbounds nuw %struct.AVFrame, ptr %59, i32 0, i32 0
  %61 = getelementptr inbounds [8 x ptr], ptr %60, i64 0, i64 0
  %62 = getelementptr inbounds [4 x ptr], ptr %8, i64 0, i64 0
  call void @llvm.memcpy.p0.p0.i64(ptr align 8 %61, ptr align 16 %62, i64 32, i1 false)
  %63 = load ptr, ptr %5, align 8, !tbaa !41
  %64 = getelementptr inbounds nuw %struct.AVFrame, ptr %63, i32 0, i32 1
  %65 = getelementptr inbounds [8 x i32], ptr %64, i64 0, i64 0
  %66 = getelementptr inbounds [4 x i32], ptr %9, i64 0, i64 0
  call void @llvm.memcpy.p0.p0.i64(ptr align 8 %65, ptr align 16 %66, i64 16, i1 false)
  %67 = load ptr, ptr %7, align 8, !tbaa !26
  %68 = getelementptr inbounds nuw %struct.ShufflePlanesContext, ptr %67, i32 0, i32 3
  %69 = load i32, ptr %68, align 4, !tbaa !54
  %70 = icmp ne i32 %69, 0
  br i1 %70, label %71, label %102

71:                                               ; preds = %58
  call void @llvm.lifetime.start.p0(i64 8, ptr %12) #6
  %72 = load ptr, ptr %6, align 8, !tbaa !4
  %73 = getelementptr inbounds nuw %struct.AVFilterContext, ptr %72, i32 0, i32 7
  %74 = load ptr, ptr %73, align 8, !tbaa !55
  %75 = getelementptr inbounds ptr, ptr %74, i64 0
  %76 = load ptr, ptr %75, align 8, !tbaa !39
  %77 = load ptr, ptr %5, align 8, !tbaa !41
  %78 = getelementptr inbounds nuw %struct.AVFrame, ptr %77, i32 0, i32 3
  %79 = load i32, ptr %78, align 8, !tbaa !56
  %80 = load ptr, ptr %5, align 8, !tbaa !41
  %81 = getelementptr inbounds nuw %struct.AVFrame, ptr %80, i32 0, i32 4
  %82 = load i32, ptr %81, align 4, !tbaa !61
  %83 = call ptr @ff_get_video_buffer(ptr noundef %76, i32 noundef %79, i32 noundef %82)
  store ptr %83, ptr %12, align 8, !tbaa !41
  %84 = load ptr, ptr %12, align 8, !tbaa !41
  %85 = icmp ne ptr %84, null
  br i1 %85, label %87, label %86

86:                                               ; preds = %71
  store i32 -12, ptr %11, align 4, !tbaa !28
  store i32 5, ptr %13, align 4
  br label %99

87:                                               ; preds = %71
  %88 = load ptr, ptr %12, align 8, !tbaa !41
  %89 = load ptr, ptr %5, align 8, !tbaa !41
  %90 = call i32 @av_frame_copy(ptr noundef %88, ptr noundef %89)
  %91 = load ptr, ptr %12, align 8, !tbaa !41
  %92 = load ptr, ptr %5, align 8, !tbaa !41
  %93 = call i32 @av_frame_copy_props(ptr noundef %91, ptr noundef %92)
  store i32 %93, ptr %11, align 4, !tbaa !28
  %94 = load i32, ptr %11, align 4, !tbaa !28
  %95 = icmp slt i32 %94, 0
  br i1 %95, label %96, label %97

96:                                               ; preds = %87
  call void @av_frame_free(ptr noundef %12)
  store i32 5, ptr %13, align 4
  br label %99

97:                                               ; preds = %87
  call void @av_frame_free(ptr noundef %5)
  %98 = load ptr, ptr %12, align 8, !tbaa !41
  store ptr %98, ptr %5, align 8, !tbaa !41
  store i32 0, ptr %13, align 4
  br label %99

99:                                               ; preds = %96, %86, %97
  call void @llvm.lifetime.end.p0(i64 8, ptr %12) #6
  %100 = load i32, ptr %13, align 4
  switch i32 %100, label %112 [
    i32 0, label %101
    i32 5, label %110
  ]

101:                                              ; preds = %99
  br label %102

102:                                              ; preds = %101, %58
  %103 = load ptr, ptr %6, align 8, !tbaa !4
  %104 = getelementptr inbounds nuw %struct.AVFilterContext, ptr %103, i32 0, i32 7
  %105 = load ptr, ptr %104, align 8, !tbaa !55
  %106 = getelementptr inbounds ptr, ptr %105, i64 0
  %107 = load ptr, ptr %106, align 8, !tbaa !39
  %108 = load ptr, ptr %5, align 8, !tbaa !41
  %109 = call i32 @ff_filter_frame(ptr noundef %107, ptr noundef %108)
  store i32 %109, ptr %3, align 4
  store i32 1, ptr %13, align 4
  br label %112

110:                                              ; preds = %99
  call void @av_frame_free(ptr noundef %5)
  %111 = load i32, ptr %11, align 4, !tbaa !28
  store i32 %111, ptr %3, align 4
  store i32 1, ptr %13, align 4
  br label %112

112:                                              ; preds = %110, %102, %99
  call void @llvm.lifetime.end.p0(i64 4, ptr %11) #6
  call void @llvm.lifetime.end.p0(i64 4, ptr %10) #6
  call void @llvm.lifetime.end.p0(i64 16, ptr %9) #6
  call void @llvm.lifetime.end.p0(i64 32, ptr %8) #6
  call void @llvm.lifetime.end.p0(i64 8, ptr %7) #6
  call void @llvm.lifetime.end.p0(i64 8, ptr %6) #6
  %113 = load i32, ptr %3, align 4
  ret i32 %113
}