; Function Attrs: nounwind uwtable
define internal i32 @shuffleplanes_filter_frame(ptr noundef readonly captures(none) %0, ptr noundef %1) #0 {
  %3 = alloca ptr, align 8
  %4 = alloca [4 x ptr], align 16
  %5 = alloca [4 x i32], align 16
  %6 = alloca ptr, align 8
  store ptr %1, ptr %3, align 8, !tbaa !31
  %7 = getelementptr inbounds nuw i8, ptr %0, i64 16
  %8 = load ptr, ptr %7, align 8, !tbaa !33
  %9 = getelementptr inbounds nuw i8, ptr %8, i64 72
  %10 = load ptr, ptr %9, align 8, !tbaa !9
  call void @llvm.lifetime.start.p0(i64 32, ptr nonnull %4) #6
  call void @llvm.memset.p0.i64(ptr noundef nonnull align 16 dereferenceable(32) %4, i8 0, i64 32, i1 false)
  call void @llvm.lifetime.start.p0(i64 16, ptr nonnull %5) #6
  call void @llvm.memset.p0.i64(ptr noundef nonnull align 16 dereferenceable(16) %5, i8 0, i64 16, i1 false)
  %11 = getelementptr inbounds nuw i8, ptr %10, i64 8
  %12 = load i32, ptr %11, align 8, !tbaa !41
  %13 = icmp sgt i32 %12, 0
  br i1 %13, label %.lr.ph, label %._crit_edge

.lr.ph:                                           ; preds = %2
  %14 = getelementptr inbounds nuw i8, ptr %10, i64 12
  %15 = getelementptr inbounds nuw i8, ptr %1, i64 64
  %wide.trip.count = zext nneg i32 %12 to i64
  br label %16

16:                                               ; preds = %.lr.ph, %16
  %indvars.iv = phi i64 [ 0, %.lr.ph ], [ %indvars.iv.next, %16 ]
  %17 = getelementptr inbounds nuw [4 x i32], ptr %14, i64 0, i64 %indvars.iv
  %18 = load i32, ptr %17, align 4, !tbaa !25
  %19 = sext i32 %18 to i64
  %20 = getelementptr inbounds [8 x ptr], ptr %1, i64 0, i64 %19
  %21 = load ptr, ptr %20, align 8, !tbaa !43
  %22 = getelementptr inbounds nuw [4 x ptr], ptr %4, i64 0, i64 %indvars.iv
  store ptr %21, ptr %22, align 8, !tbaa !43
  %23 = getelementptr inbounds [8 x i32], ptr %15, i64 0, i64 %19
  %24 = load i32, ptr %23, align 4, !tbaa !25
  %25 = getelementptr inbounds nuw [4 x i32], ptr %5, i64 0, i64 %indvars.iv
  store i32 %24, ptr %25, align 4, !tbaa !25
  %indvars.iv.next = add nuw nsw i64 %indvars.iv, 1
  %exitcond.not = icmp eq i64 %indvars.iv.next, %wide.trip.count
  br i1 %exitcond.not, label %._crit_edge, label %16, !llvm.loop !44

._crit_edge:                                      ; preds = %16, %2
  call void @llvm.memcpy.p0.p0.i64(ptr noundef nonnull align 8 dereferenceable(32) %1, ptr noundef nonnull align 16 dereferenceable(32) %4, i64 32, i1 false)
  %26 = getelementptr inbounds nuw i8, ptr %1, i64 64
  call void @llvm.memcpy.p0.p0.i64(ptr noundef nonnull align 8 dereferenceable(16) %26, ptr noundef nonnull align 16 dereferenceable(16) %5, i64 16, i1 false)
  %27 = getelementptr inbounds nuw i8, ptr %10, i64 28
  %28 = load i32, ptr %27, align 4, !tbaa !45
  %.not = icmp eq i32 %28, 0
  br i1 %.not, label %44, label %29

29:                                               ; preds = %._crit_edge
  call void @llvm.lifetime.start.p0(i64 8, ptr nonnull %6) #6
  %30 = getelementptr inbounds nuw i8, ptr %8, i64 56
  %31 = load ptr, ptr %30, align 8, !tbaa !46
  %32 = load ptr, ptr %31, align 8, !tbaa !47
  %33 = getelementptr inbounds nuw i8, ptr %1, i64 104
  %34 = load i32, ptr %33, align 8, !tbaa !49
  %35 = getelementptr inbounds nuw i8, ptr %1, i64 108
  %36 = load i32, ptr %35, align 4, !tbaa !54
  %37 = tail call ptr @ff_get_video_buffer(ptr noundef %32, i32 noundef %34, i32 noundef %36) #6
  store ptr %37, ptr %6, align 8, !tbaa !31
  %.not22 = icmp eq ptr %37, null
  br i1 %.not22, label %50, label %38

38:                                               ; preds = %29
  %39 = tail call i32 @av_frame_copy(ptr noundef nonnull %37, ptr noundef nonnull %1) #6
  %40 = tail call i32 @av_frame_copy_props(ptr noundef nonnull %37, ptr noundef nonnull %1) #6
  %41 = icmp slt i32 %40, 0
  br i1 %41, label %42, label %43

42:                                               ; preds = %38
  call void @av_frame_free(ptr noundef nonnull %6) #6
  br label %50

43:                                               ; preds = %38
  call void @av_frame_free(ptr noundef nonnull %3) #6
  store ptr %37, ptr %3, align 8, !tbaa !31
  call void @llvm.lifetime.end.p0(i64 8, ptr nonnull %6) #6
  br label %44

44:                                               ; preds = %43, %._crit_edge
  %45 = phi ptr [ %37, %43 ], [ %1, %._crit_edge ]
  %46 = getelementptr inbounds nuw i8, ptr %8, i64 56
  %47 = load ptr, ptr %46, align 8, !tbaa !46
  %48 = load ptr, ptr %47, align 8, !tbaa !47
  %49 = call i32 @ff_filter_frame(ptr noundef %48, ptr noundef nonnull %45) #6
  br label %51

50:                                               ; preds = %42, %29
  %.017.ph = phi i32 [ -12, %29 ], [ %40, %42 ]
  call void @llvm.lifetime.end.p0(i64 8, ptr nonnull %6) #6
  call void @av_frame_free(ptr noundef nonnull %3) #6
  br label %51

51:                                               ; preds = %50, %44
  %.019 = phi i32 [ %.017.ph, %50 ], [ %49, %44 ]
  call void @llvm.lifetime.end.p0(i64 16, ptr nonnull %5) #6
  call void @llvm.lifetime.end.p0(i64 32, ptr nonnull %4) #6
  ret i32 %.019
}